target datalayout = "e-m:e-p270:32:32-p271:32:32-p272:64:64-i64:64-i128:128-f80:128-n8:16:32:64-S128"
target triple = "x86_64-pc-linux-gnu"

%struct.Type_ = type { i32, ptr, ptr, ptr, %union.anon.85, ptr, ptr, %union.anon.87 }
%union.anon.85 = type { ptr }
%union.anon.87 = type { %struct.TypeFunction }
%struct.TypeFunction = type { ptr, ptr, ptr }
%struct.Decl_ = type { ptr, ptr, %union.SourceSpan, i64, %union.anon.5, i32, %union.anon.6, i64, ptr, ptr, ptr, %union.anon.7 }
%union.SourceSpan = type { i64 }
%union.anon.5 = type { ptr }
%union.anon.6 = type { i16 }
%union.anon.7 = type { %struct.FuncDecl }
%struct.FuncDecl = type { i32, [4 x i8], %struct.Signature_, i32, i32, %union.anon.14 }
%struct.Signature_ = type <{ %struct.CalleeAttributes, i16, i8, i32, i32, [4 x i8], ptr }>
%struct.CalleeAttributes = type { i8 }
%union.anon.14 = type { %struct.anon.15 }
%struct.anon.15 = type { i16, %union.anon.16 }
%union.anon.16 = type { ptr }
%struct.anon.8 = type { ptr, ptr, %union.anon.9 }
%union.anon.9 = type { %struct.BitStructDecl }
%struct.BitStructDecl = type { ptr, ptr, i8 }
%struct.TypeArray = type { ptr, i32 }
%struct.StructDecl = type { i32, ptr, i32, i16 }
%struct.VHeader_ = type { i32, i32, [0 x i8] }

; Function Attrs: nounwind uwtable
define dso_local zeroext i1 @x64_bits_contain_no_user_data(ptr noundef %0, i32 noundef %1, i32 noundef %2) #0 {
  %4 = alloca i32, align 4
  %5 = alloca ptr, align 8
  %6 = alloca ptr, align 8
  %7 = alloca i1, align 1
  %8 = alloca ptr, align 8
  %9 = alloca i32, align 4
  %10 = alloca i32, align 4
  %11 = alloca i32, align 4
  %12 = alloca i32, align 4
  %13 = alloca i32, align 4
  %14 = alloca i32, align 4
  %15 = alloca i32, align 4
  %16 = alloca ptr, align 8
  %17 = alloca i32, align 4
  %18 = alloca i32, align 4
  %19 = alloca ptr, align 8
  %20 = alloca i32, align 4
  %21 = alloca i32, align 4
  store ptr %0, ptr %8, align 8
  store i32 %1, ptr %9, align 4
  store i32 %2, ptr %10, align 4
  %22 = load ptr, ptr %8, align 8
  %23 = call i32 @type_size(ptr noundef %22)
  store i32 %23, ptr %11, align 4
  %24 = load i32, ptr %11, align 4
  %25 = load i32, ptr %9, align 4
  %26 = icmp ule i32 %24, %25
  br i1 %26, label %27, label %28

27:                                               ; preds = %3
  store i1 true, ptr %7, align 1
  br label %154

28:                                               ; preds = %3
  %29 = load ptr, ptr %8, align 8
  %30 = getelementptr inbounds %struct.Type_, ptr %29, i32 0, i32 0
  %31 = load i32, ptr %30, align 8
  %32 = icmp eq i32 %31, 33
  br i1 %32, label %33, label %80

33:                                               ; preds = %28
  %34 = load ptr, ptr %8, align 8
  %35 = getelementptr inbounds %struct.Type_, ptr %34, i32 0, i32 7
  %36 = getelementptr inbounds %struct.TypeArray, ptr %35, i32 0, i32 0
  %37 = load ptr, ptr %36, align 8
  %38 = call i32 @type_size(ptr noundef %37)
  store i32 %38, ptr %12, align 4
  store i32 0, ptr %13, align 4
  br label %39

39:                                               ; preds = %76, %33
  %40 = load i32, ptr %13, align 4
  %41 = load ptr, ptr %8, align 8
  %42 = getelementptr inbounds %struct.Type_, ptr %41, i32 0, i32 7
  %43 = getelementptr inbounds %struct.TypeArray, ptr %42, i32 0, i32 1
  %44 = load i32, ptr %43, align 8
  %45 = icmp ult i32 %40, %44
  br i1 %45, label %46, label %79

46:                                               ; preds = %39
  %47 = load i32, ptr %13, align 4
  %48 = load i32, ptr %12, align 4
  %49 = mul i32 %47, %48
  store i32 %49, ptr %14, align 4
  %50 = load i32, ptr %14, align 4
  %51 = load i32, ptr %10, align 4
  %52 = icmp uge i32 %50, %51
  br i1 %52, label %53, label %54

53:                                               ; preds = %46
  br label %79

54:                                               ; preds = %46
  %55 = load i32, ptr %14, align 4
  %56 = load i32, ptr %9, align 4
  %57 = icmp ult i32 %55, %56
  br i1 %57, label %58, label %62

58:                                               ; preds = %54
  %59 = load i32, ptr %9, align 4
  %60 = load i32, ptr %14, align 4
  %61 = sub i32 %59, %60
  br label %63

62:                                               ; preds = %54
  br label %63

63:                                               ; preds = %62, %58
  %64 = phi i32 [ %61, %58 ], [ 0, %62 ]
  store i32 %64, ptr %15, align 4
  %65 = load ptr, ptr %8, align 8
  %66 = getelementptr inbounds %struct.Type_, ptr %65, i32 0, i32 7
  %67 = getelementptr inbounds %struct.TypeArray, ptr %66, i32 0, i32 0
  %68 = load ptr, ptr %67, align 8
  %69 = load i32, ptr %15, align 4
  %70 = load i32, ptr %10, align 4
  %71 = load i32, ptr %14, align 4
  %72 = sub i32 %70, %71
  %73 = call zeroext i1 @x64_bits_contain_no_user_data(ptr noundef %68, i32 noundef %69, i32 noundef %72)
  br i1 %73, label %75, label %74

74:                                               ; preds = %63
  store i1 false, ptr %7, align 1
  br label %154

75:                                               ; preds = %63
  br label %76

76:                                               ; preds = %75
  %77 = load i32, ptr %13, align 4
  %78 = add i32 %77, 1
  store i32 %78, ptr %13, align 4
  br label %39, !llvm.loop !11

79:                                               ; preds = %53, %39
  store i1 true, ptr %7, align 1
  br label %154

80:                                               ; preds = %28
  %81 = load ptr, ptr %8, align 8
  %82 = getelementptr inbounds %struct.Type_, ptr %81, i32 0, i32 0
  %83 = load i32, ptr %82, align 8
  %84 = icmp eq i32 %83, 26
  br i1 %84, label %90, label %85

85:                                               ; preds = %80
  %86 = load ptr, ptr %8, align 8
  %87 = getelementptr inbounds %struct.Type_, ptr %86, i32 0, i32 0
  %88 = load i32, ptr %87, align 8
  %89 = icmp eq i32 %88, 27
  br i1 %89, label %90, label %153

90:                                               ; preds = %85, %80
  %91 = load ptr, ptr %8, align 8
  %92 = getelementptr inbounds %struct.Type_, ptr %91, i32 0, i32 7
  %93 = load ptr, ptr %92, align 8
  %94 = getelementptr inbounds %struct.Decl_, ptr %93, i32 0, i32 11
  %95 = getelementptr inbounds %struct.anon.8, ptr %94, i32 0, i32 2
  %96 = getelementptr inbounds %struct.StructDecl, ptr %95, i32 0, i32 1
  %97 = load ptr, ptr %96, align 8
  store ptr %97, ptr %16, align 8
  store i32 0, ptr %17, align 4
  %98 = load ptr, ptr %16, align 8
  store ptr %98, ptr %5, align 8
  %99 = load ptr, ptr %5, align 8
  %100 = icmp ne ptr %99, null
  br i1 %100, label %102, label %101

101:                                              ; preds = %90
  store i32 0, ptr %4, align 4
  br label %107

102:                                              ; preds = %90
  %103 = load ptr, ptr %5, align 8
  store ptr %103, ptr %6, align 8
  %104 = load ptr, ptr %6, align 8
  %105 = getelementptr inbounds %struct.VHeader_, ptr %104, i64 -1
  %106 = load i32, ptr %105, align 4
  store i32 %106, ptr %4, align 4
  br label %107

107:                                              ; preds = %102, %101
  %108 = load i32, ptr %4, align 4
  store i32 %108, ptr %18, align 4
  br label %109

109:                                              ; preds = %149, %107
  %110 = load i32, ptr %17, align 4
  %111 = load i32, ptr %18, align 4
  %112 = icmp ult i32 %110, %111
  br i1 %112, label %113, label %152

113:                                              ; preds = %109
  %114 = load ptr, ptr %16, align 8
  %115 = load i32, ptr %17, align 4
  %116 = zext i32 %115 to i64
  %117 = getelementptr inbounds ptr, ptr %114, i64 %116
  %118 = load ptr, ptr %117, align 8
  store ptr %118, ptr %19, align 8
  %119 = load ptr, ptr %19, align 8
  %120 = getelementptr inbounds %struct.Decl_, ptr %119, i32 0, i32 7
  %121 = load i64, ptr %120, align 8
  %122 = and i64 %121, 4294967295
  %123 = trunc i64 %122 to i32
  store i32 %123, ptr %20, align 4
  %124 = load i32, ptr %20, align 4
  %125 = load i32, ptr %10, align 4
  %126 = icmp uge i32 %124, %125
  br i1 %126, label %127, label %128

127:                                              ; preds = %113
  br label %152

128:                                              ; preds = %113
  %129 = load i32, ptr %20, align 4
  %130 = load i32, ptr %9, align 4
  %131 = icmp ult i32 %129, %130
  br i1 %131, label %132, label %136

132:                                              ; preds = %128
  %133 = load i32, ptr %9, align 4
  %134 = load i32, ptr %20, align 4
  %135 = sub i32 %133, %134
  br label %137

136:                                              ; preds = %128
  br label %137

137:                                              ; preds = %136, %132
  %138 = phi i32 [ %135, %132 ], [ 0, %136 ]
  store i32 %138, ptr %21, align 4
  %139 = load ptr, ptr %19, align 8
  %140 = getelementptr inbounds %struct.Decl_, ptr %139, i32 0, i32 10
  %141 = load ptr, ptr %140, align 8
  %142 = load i32, ptr %21, align 4
  %143 = load i32, ptr %10, align 4
  %144 = load i32, ptr %20, align 4
  %145 = sub i32 %143, %144
  %146 = call zeroext i1 @x64_bits_contain_no_user_data(ptr noundef %141, i32 noundef %142, i32 noundef %145)
  br i1 %146, label %148, label %147

147:                                              ; preds = %137
  store i1 false, ptr %7, align 1
  br label %154

148:                                              ; preds = %137
  br label %149

149:                                              ; preds = %148
  %150 = load i32, ptr %17, align 4
  %151 = add i32 %150, 1
  store i32 %151, ptr %17, align 4
  br label %109, !llvm.loop !12

152:                                              ; preds = %127, %109
  store i1 true, ptr %7, align 1
  br label %154

153:                                              ; preds = %85
  store i1 false, ptr %7, align 1
  br label %154

154:                                              ; preds = %153, %152, %147, %79, %74, %27
  %155 = load i1, ptr %7, align 1
  ret i1 %155
}