; Function Attrs: nounwind uwtable
define dso_local noundef zeroext i1 @x64_bits_contain_no_user_data(ptr noundef %0, i32 noundef %1, i32 noundef %2) local_unnamed_addr #1 {
  %4 = tail call i32 @type_size(ptr noundef %0) #7
  %.not = icmp ugt i32 %4, %1
  br i1 %.not, label %5, label %.loopexit

5:                                                ; preds = %3
  %6 = load i32, ptr %0, align 8
  switch i32 %6, label %.loopexit [
    i32 33, label %7
    i32 26, label %23
    i32 27, label %23
  ]

7:                                                ; preds = %5
  %8 = getelementptr inbounds i8, ptr %0, i64 56
  %9 = load ptr, ptr %8, align 8
  %10 = tail call i32 @type_size(ptr noundef %9) #7
  %11 = getelementptr inbounds i8, ptr %0, i64 64
  %12 = load i32, ptr %11, align 8
  %.not71 = icmp eq i32 %12, 0
  br i1 %.not71, label %.loopexit, label %.lr.ph64

13:                                               ; preds = %18
  %14 = add nuw i32 %.04563, 1
  %15 = load i32, ptr %11, align 8
  %16 = icmp ult i32 %14, %15
  br i1 %16, label %.lr.ph64, label %.loopexit, !llvm.loop !11

.lr.ph64:                                         ; preds = %7, %13
  %.04563 = phi i32 [ %14, %13 ], [ 0, %7 ]
  %17 = mul i32 %.04563, %10
  %.not55 = icmp ult i32 %17, %2
  br i1 %.not55, label %18, label %.loopexit

18:                                               ; preds = %.lr.ph64
  %19 = tail call i32 @llvm.usub.sat.i32(i32 %1, i32 %17)
  %20 = load ptr, ptr %8, align 8
  %21 = sub i32 %2, %17
  %22 = tail call zeroext i1 @x64_bits_contain_no_user_data(ptr noundef %20, i32 noundef %19, i32 noundef %21)
  br i1 %22, label %13, label %.loopexit

23:                                               ; preds = %5, %5
  %24 = getelementptr inbounds i8, ptr %0, i64 56
  %25 = load ptr, ptr %24, align 8
  %26 = getelementptr inbounds i8, ptr %25, i64 104
  %27 = load ptr, ptr %26, align 8
  %.not53 = icmp eq ptr %27, null
  br i1 %.not53, label %.loopexit, label %28

28:                                               ; preds = %23
  %29 = getelementptr inbounds i8, ptr %27, i64 -8
  %30 = load i32, ptr %29, align 4
  %.not70 = icmp eq i32 %30, 0
  br i1 %.not70, label %.loopexit, label %.lr.ph.preheader

.lr.ph.preheader:                                 ; preds = %28
  %wide.trip.count = zext i32 %30 to i64
  br label %.lr.ph

31:                                               ; preds = %37
  %indvars.iv.next = add nuw nsw i64 %indvars.iv, 1
  %exitcond.not = icmp eq i64 %indvars.iv.next, %wide.trip.count
  br i1 %exitcond.not, label %.loopexit, label %.lr.ph, !llvm.loop !12

.lr.ph:                                           ; preds = %.lr.ph.preheader, %31
  %indvars.iv = phi i64 [ 0, %.lr.ph.preheader ], [ %indvars.iv.next, %31 ]
  %32 = getelementptr inbounds ptr, ptr %27, i64 %indvars.iv
  %33 = load ptr, ptr %32, align 8
  %34 = getelementptr inbounds i8, ptr %33, i64 48
  %35 = load i64, ptr %34, align 8
  %36 = trunc i64 %35 to i32
  %.not54 = icmp ult i32 %36, %2
  br i1 %.not54, label %37, label %.loopexit

37:                                               ; preds = %.lr.ph
  %38 = tail call i32 @llvm.usub.sat.i32(i32 %1, i32 %36)
  %39 = getelementptr inbounds i8, ptr %33, i64 72
  %40 = load ptr, ptr %39, align 8
  %41 = sub i32 %2, %36
  %42 = tail call zeroext i1 @x64_bits_contain_no_user_data(ptr noundef %40, i32 noundef %38, i32 noundef %41)
  br i1 %42, label %31, label %.loopexit

.loopexit:                                        ; preds = %37, %.lr.ph, %31, %18, %.lr.ph64, %13, %23, %28, %7, %5, %3
  %.044 = phi i1 [ true, %3 ], [ false, %5 ], [ true, %7 ], [ true, %28 ], [ true, %23 ], [ false, %18 ], [ true, %.lr.ph64 ], [ true, %13 ], [ false, %37 ], [ true, %.lr.ph ], [ true, %31 ]
  ret i1 %.044
}